target datalayout = "e-m:e-p270:32:32-p271:32:32-p272:64:64-i64:64-i128:128-f80:128-n8:16:32:64-S128"
target triple = "x86_64-pc-linux-gnu"

%"class.lean::mpz" = type { [1 x %struct.__mpz_struct] }
%struct.__mpz_struct = type { i32, i32, ptr }

; Function Attrs: mustprogress uwtable
define noundef nonnull align 8 dereferenceable(16) ptr @_ZN4lean3mpzmIEi(ptr noundef nonnull align 8 dereferenceable(16) %0, i32 noundef %1) #2 align 2 {
  %3 = alloca ptr, align 8
  %4 = alloca i32, align 4
  store ptr %0, ptr %3, align 8, !tbaa !3
  store i32 %1, ptr %4, align 4, !tbaa !11
  %5 = load ptr, ptr %3, align 8
  %6 = load i32, ptr %4, align 4, !tbaa !11
  %7 = icmp sge i32 %6, 0
  br i1 %7, label %8, label %15

8:                                                ; preds = %2
  %9 = getelementptr inbounds nuw %"class.lean::mpz", ptr %5, i32 0, i32 0
  %10 = getelementptr inbounds [1 x %struct.__mpz_struct], ptr %9, i64 0, i64 0
  %11 = getelementptr inbounds nuw %"class.lean::mpz", ptr %5, i32 0, i32 0
  %12 = getelementptr inbounds [1 x %struct.__mpz_struct], ptr %11, i64 0, i64 0
  %13 = load i32, ptr %4, align 4, !tbaa !11
  %14 = sext i32 %13 to i64
  call void @__gmpz_sub_ui(ptr noundef %10, ptr noundef %12, i64 noundef %14)
  br label %23

15:                                               ; preds = %2
  %16 = getelementptr inbounds nuw %"class.lean::mpz", ptr %5, i32 0, i32 0
  %17 = getelementptr inbounds [1 x %struct.__mpz_struct], ptr %16, i64 0, i64 0
  %18 = getelementptr inbounds nuw %"class.lean::mpz", ptr %5, i32 0, i32 0
  %19 = getelementptr inbounds [1 x %struct.__mpz_struct], ptr %18, i64 0, i64 0
  %20 = load i32, ptr %4, align 4, !tbaa !11
  %21 = sub i32 0, %20
  %22 = zext i32 %21 to i64
  call void @__gmpz_add_ui(ptr noundef %17, ptr noundef %19, i64 noundef %22)
  br label %23

23:                                               ; preds = %15, %8
  ret ptr %5
}