; Function Attrs: mustprogress uwtable
define noundef nonnull align 8 dereferenceable(16) ptr @_ZN4lean3mpzmIEi(ptr noundef nonnull returned align 8 dereferenceable(16) %0, i32 noundef %1) local_unnamed_addr #2 align 2 {
  %3 = icmp sgt i32 %1, -1
  br i1 %3, label %4, label %6

4:                                                ; preds = %2
  %5 = zext nneg i32 %1 to i64
  tail call void @__gmpz_sub_ui(ptr noundef nonnull %0, ptr noundef nonnull %0, i64 noundef %5)
  br label %9

6:                                                ; preds = %2
  %7 = sub i32 0, %1
  %8 = zext i32 %7 to i64
  tail call void @__gmpz_add_ui(ptr noundef nonnull %0, ptr noundef nonnull %0, i64 noundef %8)
  br label %9

9:                                                ; preds = %6, %4
  ret ptr %0
}